; Function Attrs: nofree nounwind memory(read, inaccessiblemem: none) uwtable
define ptr @color_palettes_get(ptr noundef readonly captures(none) %0) local_unnamed_addr #0 {
  br label %3

2:                                                ; preds = %3
  %indvars.iv.next = add nuw nsw i64 %indvars.iv, 1
  %exitcond.not = icmp eq i64 %indvars.iv.next, 265
  br i1 %exitcond.not, label %.loopexit, label %3, !llvm.loop !3

3:                                                ; preds = %1, %2
  %indvars.iv = phi i64 [ 0, %1 ], [ %indvars.iv.next, %2 ]
  %4 = getelementptr inbounds nuw [265 x [2 x ptr]], ptr @color_palettes, i64 0, i64 %indvars.iv
  %5 = load ptr, ptr %4, align 16, !tbaa !5
  %6 = tail call i32 @strcmp(ptr noundef nonnull dereferenceable(1) %0, ptr noundef nonnull dereferenceable(1) %5) #5
  %7 = icmp eq i32 %6, 0
  br i1 %7, label %8, label %2

8:                                                ; preds = %3
  %9 = getelementptr inbounds nuw i8, ptr %4, i64 8
  %10 = load ptr, ptr %9, align 8, !tbaa !5
  br label %.loopexit

.loopexit:                                        ; preds = %2, %8
  %.05 = phi ptr [ %10, %8 ], [ null, %2 ]
  ret ptr %.05
}